target datalayout = "e-m:e-p270:32:32-p271:32:32-p272:64:64-i64:64-i128:128-f80:128-n8:16:32:64-S128"
target triple = "x86_64-pc-linux-gnu"

%struct._zend_refcounted_h = type { i32, %union.anon.3 }
%union.anon.3 = type { i32 }
%struct._zend_ini_entry = type { ptr, ptr, ptr, ptr, ptr, ptr, ptr, ptr, i32, i8, i8, i8 }
%struct._zend_string = type { %struct._zend_refcounted_h, i64, i64, [1 x i8] }

@.str.4 = private unnamed_addr constant [25 x i8] c"Invalid \22%s\22 setting. %s\00", align 1

; Function Attrs: nounwind uwtable
define i64 @zend_ini_parse_quantity(ptr noundef %0, ptr noundef %1) #0 {
  %3 = alloca ptr, align 8
  %4 = alloca ptr, align 8
  store ptr %0, ptr %3, align 8
  store ptr %1, ptr %4, align 8
  %5 = load ptr, ptr %3, align 8
  %6 = load ptr, ptr %4, align 8
  %7 = call i64 @zend_ini_parse_quantity_internal(ptr noundef %5, i32 noundef 0, ptr noundef %6)
  ret i64 %7
}

; Function Attrs: nounwind uwtable
define i64 @zend_ini_parse_quantity_warn(ptr noundef %0, ptr noundef %1) #0 {
  %3 = alloca ptr, align 8
  %4 = alloca i32, align 4
  %5 = alloca i32, align 4
  %6 = alloca ptr, align 8
  %7 = alloca ptr, align 8
  %8 = alloca ptr, align 8
  %9 = alloca ptr, align 8
  %10 = alloca i64, align 8
  store ptr %0, ptr %7, align 8
  store ptr %1, ptr %8, align 8
  %11 = load ptr, ptr %7, align 8
  %12 = call i64 @zend_ini_parse_quantity(ptr noundef %11, ptr noundef %9)
  store i64 %12, ptr %10, align 8
  %13 = load ptr, ptr %9, align 8
  %14 = icmp ne ptr %13, null
  br i1 %14, label %15, label %54

15:                                               ; preds = %2
  %16 = load ptr, ptr %8, align 8
  %17 = getelementptr inbounds %struct._zend_string, ptr %16, i32 0, i32 3
  %18 = getelementptr inbounds [1 x i8], ptr %17, i64 0, i64 0
  %19 = load ptr, ptr %9, align 8
  %20 = getelementptr inbounds %struct._zend_string, ptr %19, i32 0, i32 3
  %21 = getelementptr inbounds [1 x i8], ptr %20, i64 0, i64 0
  call void (i32, ptr, ...) @zend_error(i32 noundef 2, ptr noundef @.str.4, ptr noundef %18, ptr noundef %21)
  %22 = load ptr, ptr %9, align 8
  store ptr %22, ptr %6, align 8
  %23 = load ptr, ptr %6, align 8
  %24 = getelementptr inbounds %struct._zend_refcounted_h, ptr %23, i32 0, i32 1
  %25 = load i32, ptr %24, align 4
  store i32 %25, ptr %4, align 4
  %26 = load i32, ptr %4, align 4
  %27 = and i32 %26, 1008
  %28 = and i32 %27, 64
  %29 = icmp ne i32 %28, 0
  br i1 %29, label %53, label %30

30:                                               ; preds = %15
  %31 = load ptr, ptr %6, align 8
  store ptr %31, ptr %3, align 8
  %32 = load ptr, ptr %3, align 8
  %33 = load i32, ptr %32, align 4
  %34 = icmp ugt i32 %33, 0
  call void @llvm.assume(i1 %34)
  %35 = load ptr, ptr %3, align 8
  %36 = load i32, ptr %35, align 4
  %37 = add i32 %36, -1
  store i32 %37, ptr %35, align 4
  %38 = icmp eq i32 %37, 0
  br i1 %38, label %39, label %52

39:                                               ; preds = %30
  %40 = load ptr, ptr %6, align 8
  %41 = getelementptr inbounds %struct._zend_refcounted_h, ptr %40, i32 0, i32 1
  %42 = load i32, ptr %41, align 4
  store i32 %42, ptr %5, align 4
  %43 = load i32, ptr %5, align 4
  %44 = and i32 %43, 1008
  %45 = and i32 %44, 128
  %46 = icmp ne i32 %45, 0
  br i1 %46, label %47, label %49

47:                                               ; preds = %39
  %48 = load ptr, ptr %6, align 8
  call void @free(ptr noundef %48) #13
  br label %51

49:                                               ; preds = %39
  %50 = load ptr, ptr %6, align 8
  call void @_efree(ptr noundef %50) #13
  br label %51

51:                                               ; preds = %49, %47
  br label %52

52:                                               ; preds = %51, %30
  br label %53

53:                                               ; preds = %52, %15
  br label %54

54:                                               ; preds = %53, %2
  %55 = load i64, ptr %10, align 8
  ret i64 %55
}

; Function Attrs: nounwind uwtable
define i32 @OnUpdateLong(ptr noundef %0, ptr noundef %1, ptr noundef %2, ptr noundef %3, ptr noundef %4, i32 noundef %5) #0 {
  %7 = alloca ptr, align 8
  %8 = alloca ptr, align 8
  %9 = alloca ptr, align 8
  %10 = alloca ptr, align 8
  %11 = alloca ptr, align 8
  %12 = alloca i32, align 4
  %13 = alloca ptr, align 8
  store ptr %0, ptr %7, align 8
  store ptr %1, ptr %8, align 8
  store ptr %2, ptr %9, align 8
  store ptr %3, ptr %10, align 8
  store ptr %4, ptr %11, align 8
  store i32 %5, ptr %12, align 4
  %14 = load ptr, ptr %10, align 8
  %15 = load ptr, ptr %9, align 8
  %16 = ptrtoint ptr %15 to i64
  %17 = getelementptr inbounds i8, ptr %14, i64 %16
  store ptr %17, ptr %13, align 8
  %18 = load ptr, ptr %8, align 8
  %19 = load ptr, ptr %7, align 8
  %20 = getelementptr inbounds %struct._zend_ini_entry, ptr %19, i32 0, i32 0
  %21 = load ptr, ptr %20, align 8
  %22 = call i64 @zend_ini_parse_quantity_warn(ptr noundef %18, ptr noundef %21)
  %23 = load ptr, ptr %13, align 8
  store i64 %22, ptr %23, align 8
  ret i32 0
}