; Function Attrs: nounwind uwtable
define noundef i32 @OnUpdateLong(ptr nocapture noundef readonly %0, ptr noundef %1, ptr noundef %2, ptr nocapture noundef writeonly %3, ptr nocapture noundef readnone %4, i32 noundef %5) local_unnamed_addr #0 {
  %7 = alloca ptr, align 8
  %8 = load ptr, ptr %0, align 8
  call void @llvm.lifetime.start.p0(i64 8, ptr nonnull %7)
  %9 = call fastcc i64 @zend_ini_parse_quantity_internal(ptr noundef %1, i32 noundef 0, ptr noundef nonnull %7)
  %10 = load ptr, ptr %7, align 8
  %.not.i = icmp eq ptr %10, null
  br i1 %.not.i, label %zend_ini_parse_quantity_warn.exit, label %11

11:                                               ; preds = %6
  %12 = getelementptr inbounds i8, ptr %8, i64 24
  %13 = getelementptr inbounds i8, ptr %10, i64 24
  tail call void (i32, ptr, ...) @zend_error(i32 noundef 2, ptr noundef nonnull @.str.4, ptr noundef nonnull %12, ptr noundef nonnull %13) #20
  %14 = getelementptr inbounds i8, ptr %10, i64 4
  %15 = load i32, ptr %14, align 4
  %16 = and i32 %15, 64
  %.not11.i = icmp eq i32 %16, 0
  br i1 %.not11.i, label %17, label %zend_ini_parse_quantity_warn.exit

17:                                               ; preds = %11
  %18 = load i32, ptr %10, align 4
  %19 = icmp ne i32 %18, 0
  tail call void @llvm.assume(i1 %19)
  %20 = add i32 %18, -1
  store i32 %20, ptr %10, align 4
  %21 = icmp eq i32 %20, 0
  br i1 %21, label %22, label %zend_ini_parse_quantity_warn.exit

22:                                               ; preds = %17
  %23 = and i32 %15, 128
  %.not12.i = icmp eq i32 %23, 0
  br i1 %.not12.i, label %25, label %24

24:                                               ; preds = %22
  tail call void @free(ptr noundef nonnull %10) #20
  br label %zend_ini_parse_quantity_warn.exit

25:                                               ; preds = %22
  tail call void @_efree(ptr noundef nonnull %10) #20
  br label %zend_ini_parse_quantity_warn.exit

zend_ini_parse_quantity_warn.exit:                ; preds = %6, %11, %17, %24, %25
  %26 = ptrtoint ptr %2 to i64
  %27 = getelementptr inbounds i8, ptr %3, i64 %26
  call void @llvm.lifetime.end.p0(i64 8, ptr nonnull %7)
  store i64 %9, ptr %27, align 8
  ret i32 0
}